; ModuleID = '10/1111.c'
source_filename = "10/1111.c"
target datalayout = "e-m:e-p270:32:32-p271:32:32-p272:64:64-i64:64-f80:128-n8:16:32:64-S128"
target triple = "x86_64-pc-linux-gnu"

@.str = private unnamed_addr constant [3 x i8] c"%d\00", align 1
@.str.1 = private unnamed_addr constant [4 x i8] c"%d\0A\00", align 1

; Function Attrs: noinline nounwind uwtable
define dso_local i32 @main() #0 {
  %1 = alloca i32, align 4
  %2 = alloca i32, align 4
  %3 = alloca i32, align 4
  %4 = alloca i32, align 4
  %5 = alloca i32, align 4
  %6 = alloca [50 x i32], align 16
  %7 = alloca [50 x i32], align 16
  %8 = alloca i32, align 4
  store i32 0, i32* %1, align 4
  store i32 0, i32* %4, align 4
  %9 = call i32 (i8*, ...) @__isoc99_scanf(i8* getelementptr inbounds ([3 x i8], [3 x i8]* @.str, i64 0, i64 0), i32* %2)
  %10 = load i32, i32* %2, align 4
  store i32 %10, i32* %3, align 4
  br label %11

11:                                               ; preds = %15, %0
  %12 = load i32, i32* %3, align 4
  %13 = add nsw i32 %12, -1
  store i32 %13, i32* %3, align 4
  %14 = icmp ne i32 %12, 0
  br i1 %14, label %15, label %21

15:                                               ; preds = %11
  %16 = load i32, i32* %4, align 4
  %17 = add nsw i32 %16, 1
  store i32 %17, i32* %4, align 4
  %18 = sext i32 %16 to i64
  %19 = getelementptr inbounds [50 x i32], [50 x i32]* %6, i64 0, i64 %18
  %20 = call i32 (i8*, ...) @__isoc99_scanf(i8* getelementptr inbounds ([3 x i8], [3 x i8]* @.str, i64 0, i64 0), i32* %19)
  br label %11

21:                                               ; preds = %11
  %22 = getelementptr inbounds [50 x i32], [50 x i32]* %7, i64 0, i64 0
  store i32 1, i32* %22, align 16
  store i32 1, i32* %8, align 4
  store i32 1, i32* %5, align 4
  br label %23

23:                                               ; preds = %31, %21
  %24 = load i32, i32* %5, align 4
  %25 = load i32, i32* %2, align 4
  %26 = icmp slt i32 %24, %25
  br i1 %26, label %27, label %34

27:                                               ; preds = %23
  %28 = load i32, i32* %5, align 4
  %29 = sext i32 %28 to i64
  %30 = getelementptr inbounds [50 x i32], [50 x i32]* %7, i64 0, i64 %29
  store i32 1, i32* %30, align 4
  br label %31

31:                                               ; preds = %27
  %32 = load i32, i32* %5, align 4
  %33 = add nsw i32 %32, 1
  store i32 %33, i32* %5, align 4
  br label %23

34:                                               ; preds = %23
  store i32 1, i32* %5, align 4
  br label %35

35:                                               ; preds = %92, %34
  %36 = load i32, i32* %5, align 4
  %37 = load i32, i32* %2, align 4
  %38 = icmp slt i32 %36, %37
  br i1 %38, label %39, label %95

39:                                               ; preds = %35
  store i32 0, i32* %4, align 4
  br label %40

40:                                               ; preds = %76, %39
  %41 = load i32, i32* %4, align 4
  %42 = load i32, i32* %5, align 4
  %43 = icmp slt i32 %41, %42
  br i1 %43, label %44, label %79

44:                                               ; preds = %40
  %45 = load i32, i32* %4, align 4
  %46 = sext i32 %45 to i64
  %47 = getelementptr inbounds [50 x i32], [50 x i32]* %6, i64 0, i64 %46
  %48 = load i32, i32* %47, align 4
  %49 = load i32, i32* %5, align 4
  %50 = sext i32 %49 to i64
  %51 = getelementptr inbounds [50 x i32], [50 x i32]* %6, i64 0, i64 %50
  %52 = load i32, i32* %51, align 4
  %53 = icmp sge i32 %48, %52
  br i1 %53, label %54, label %75

54:                                               ; preds = %44
  %55 = load i32, i32* %4, align 4
  %56 = sext i32 %55 to i64
  %57 = getelementptr inbounds [50 x i32], [50 x i32]* %7, i64 0, i64 %56
  %58 = load i32, i32* %57, align 4
  %59 = add nsw i32 %58, 1
  %60 = load i32, i32* %5, align 4
  %61 = sext i32 %60 to i64
  %62 = getelementptr inbounds [50 x i32], [50 x i32]* %7, i64 0, i64 %61
  %63 = load i32, i32* %62, align 4
  %64 = icmp sgt i32 %59, %63
  br i1 %64, label %65, label %74

65:                                               ; preds = %54
  %66 = load i32, i32* %4, align 4
  %67 = sext i32 %66 to i64
  %68 = getelementptr inbounds [50 x i32], [50 x i32]* %7, i64 0, i64 %67
  %69 = load i32, i32* %68, align 4
  %70 = add nsw i32 %69, 1
  %71 = load i32, i32* %5, align 4
  %72 = sext i32 %71 to i64
  %73 = getelementptr inbounds [50 x i32], [50 x i32]* %7, i64 0, i64 %72
  store i32 %70, i32* %73, align 4
  br label %74

74:                                               ; preds = %65, %54
  br label %75

75:                                               ; preds = %74, %44
  br label %76

76:                                               ; preds = %75
  %77 = load i32, i32* %4, align 4
  %78 = add nsw i32 %77, 1
  store i32 %78, i32* %4, align 4
  br label %40

79:                                               ; preds = %40
  %80 = load i32, i32* %5, align 4
  %81 = sext i32 %80 to i64
  %82 = getelementptr inbounds [50 x i32], [50 x i32]* %7, i64 0, i64 %81
  %83 = load i32, i32* %82, align 4
  %84 = load i32, i32* %8, align 4
  %85 = icmp sgt i32 %83, %84
  br i1 %85, label %86, label %91

86:                                               ; preds = %79
  %87 = load i32, i32* %5, align 4
  %88 = sext i32 %87 to i64
  %89 = getelementptr inbounds [50 x i32], [50 x i32]* %7, i64 0, i64 %88
  %90 = load i32, i32* %89, align 4
  store i32 %90, i32* %8, align 4
  br label %91

91:                                               ; preds = %86, %79
  br label %92

92:                                               ; preds = %91
  %93 = load i32, i32* %5, align 4
  %94 = add nsw i32 %93, 1
  store i32 %94, i32* %5, align 4
  br label %35

95:                                               ; preds = %35
  %96 = load i32, i32* %8, align 4
  %97 = call i32 (i8*, ...) @printf(i8* getelementptr inbounds ([4 x i8], [4 x i8]* @.str.1, i64 0, i64 0), i32 %96)
  %98 = call i32 @getchar()
  %99 = call i32 @getchar()
  %100 = call i32 @getchar()
  %101 = load i32, i32* %1, align 4
  ret i32 %101
}

declare dso_local i32 @__isoc99_scanf(i8*, ...) #1

declare dso_local i32 @printf(i8*, ...) #1

declare dso_local i32 @getchar() #1


!llvm.module.flags = !{!0}
!llvm.ident = !{!1}

!0 = !{i32 1, !"wchar_size", i32 4}
!1 = !{!"clang version 10.0.0-4ubuntu1 "}
